
UF-Photoresist.elf:     file format elf32-avr

Sections:
Idx Name          Size      VMA       LMA       File off  Algn
  0 .data         00000002  00800100  0000081a  000008ae  2**0
                  CONTENTS, ALLOC, LOAD, DATA
  1 .text         0000081a  00000000  00000000  00000094  2**1
                  CONTENTS, ALLOC, LOAD, READONLY, CODE
  2 .bss          00000009  00800102  00800102  000008b0  2**0
                  ALLOC
  3 .comment      00000030  00000000  00000000  000008b0  2**0
                  CONTENTS, READONLY
  4 .debug_aranges 00000108  00000000  00000000  000008e0  2**0
                  CONTENTS, READONLY, DEBUGGING
  5 .debug_info   000013fd  00000000  00000000  000009e8  2**0
                  CONTENTS, READONLY, DEBUGGING
  6 .debug_abbrev 000003ad  00000000  00000000  00001de5  2**0
                  CONTENTS, READONLY, DEBUGGING
  7 .debug_line   00000814  00000000  00000000  00002192  2**0
                  CONTENTS, READONLY, DEBUGGING
  8 .debug_frame  000002e4  00000000  00000000  000029a8  2**2
                  CONTENTS, READONLY, DEBUGGING
  9 .debug_str    0000851c  00000000  00000000  00002c8c  2**0
                  CONTENTS, READONLY, DEBUGGING
 10 .debug_loc    00000b0c  00000000  00000000  0000b1a8  2**0
                  CONTENTS, READONLY, DEBUGGING
 11 .debug_ranges 000000f8  00000000  00000000  0000bcb4  2**0
                  CONTENTS, READONLY, DEBUGGING
 12 .debug_macro  000027b5  00000000  00000000  0000bdac  2**0
                  CONTENTS, READONLY, DEBUGGING

Disassembly of section .text:

00000000 <__vectors>:
   0:	21 c0       	rjmp	.+66     	; 0x44 <__ctors_end>
   2:	5d c1       	rjmp	.+698    	; 0x2be <__vector_1>
   4:	79 c1       	rjmp	.+754    	; 0x2f8 <__vector_2>
   6:	39 c0       	rjmp	.+114    	; 0x7a <__bad_interrupt>
   8:	38 c0       	rjmp	.+112    	; 0x7a <__bad_interrupt>
   a:	37 c0       	rjmp	.+110    	; 0x7a <__bad_interrupt>
   c:	36 c0       	rjmp	.+108    	; 0x7a <__bad_interrupt>
   e:	35 c0       	rjmp	.+106    	; 0x7a <__bad_interrupt>
  10:	34 c0       	rjmp	.+104    	; 0x7a <__bad_interrupt>
  12:	25 c1       	rjmp	.+586    	; 0x25e <__vector_9>
  14:	32 c0       	rjmp	.+100    	; 0x7a <__bad_interrupt>
  16:	31 c0       	rjmp	.+98     	; 0x7a <__bad_interrupt>
  18:	30 c0       	rjmp	.+96     	; 0x7a <__bad_interrupt>
  1a:	2f c0       	rjmp	.+94     	; 0x7a <__bad_interrupt>
  1c:	2e c0       	rjmp	.+92     	; 0x7a <__bad_interrupt>
  1e:	2d c0       	rjmp	.+90     	; 0x7a <__bad_interrupt>
  20:	2c c0       	rjmp	.+88     	; 0x7a <__bad_interrupt>
  22:	2b c0       	rjmp	.+86     	; 0x7a <__bad_interrupt>
  24:	2a c0       	rjmp	.+84     	; 0x7a <__bad_interrupt>
  26:	29 c0       	rjmp	.+82     	; 0x7a <__bad_interrupt>
  28:	28 c0       	rjmp	.+80     	; 0x7a <__bad_interrupt>
  2a:	27 c0       	rjmp	.+78     	; 0x7a <__bad_interrupt>
  2c:	26 c0       	rjmp	.+76     	; 0x7a <__bad_interrupt>
  2e:	25 c0       	rjmp	.+74     	; 0x7a <__bad_interrupt>
  30:	24 c0       	rjmp	.+72     	; 0x7a <__bad_interrupt>
  32:	23 c0       	rjmp	.+70     	; 0x7a <__bad_interrupt>

00000034 <EncState>:
  34:	00 ff 01 00 01 00 00 ff ff 00 00 01 00 01 ff 00     ................

00000044 <__ctors_end>:
  44:	11 24       	eor	r1, r1
  46:	1f be       	out	0x3f, r1	; 63
  48:	cf ef       	ldi	r28, 0xFF	; 255
  4a:	d4 e0       	ldi	r29, 0x04	; 4
  4c:	de bf       	out	0x3e, r29	; 62
  4e:	cd bf       	out	0x3d, r28	; 61

00000050 <__do_copy_data>:
  50:	11 e0       	ldi	r17, 0x01	; 1
  52:	a0 e0       	ldi	r26, 0x00	; 0
  54:	b1 e0       	ldi	r27, 0x01	; 1
  56:	ea e1       	ldi	r30, 0x1A	; 26
  58:	f8 e0       	ldi	r31, 0x08	; 8
  5a:	02 c0       	rjmp	.+4      	; 0x60 <__do_copy_data+0x10>
  5c:	05 90       	lpm	r0, Z+
  5e:	0d 92       	st	X+, r0
  60:	a2 30       	cpi	r26, 0x02	; 2
  62:	b1 07       	cpc	r27, r17
  64:	d9 f7       	brne	.-10     	; 0x5c <__do_copy_data+0xc>

00000066 <__do_clear_bss>:
  66:	21 e0       	ldi	r18, 0x01	; 1
  68:	a2 e0       	ldi	r26, 0x02	; 2
  6a:	b1 e0       	ldi	r27, 0x01	; 1
  6c:	01 c0       	rjmp	.+2      	; 0x70 <.do_clear_bss_start>

0000006e <.do_clear_bss_loop>:
  6e:	1d 92       	st	X+, r1

00000070 <.do_clear_bss_start>:
  70:	ab 30       	cpi	r26, 0x0B	; 11
  72:	b2 07       	cpc	r27, r18
  74:	e1 f7       	brne	.-8      	; 0x6e <.do_clear_bss_loop>
  76:	48 d2       	rcall	.+1168   	; 0x508 <main>
  78:	ce c3       	rjmp	.+1948   	; 0x816 <_exit>

0000007a <__bad_interrupt>:
  7a:	c2 cf       	rjmp	.-124    	; 0x0 <__vectors>

0000007c <LCDMix_4Bit>:
//sets four port pins to corresponding nibble
//for high nibble use mask data & 0b11110000
//for low nibble use (data & 0b00001111)<<4
static void LCDMix_4Bit(uint8_t data)
{
  if((data)&(0b10000000)) LDPD7 |=1<<LCD_D7;
  7c:	87 ff       	sbrs	r24, 7
  7e:	02 c0       	rjmp	.+4      	; 0x84 <LCDMix_4Bit+0x8>
  80:	45 9a       	sbi	0x08, 5	; 8
  82:	01 c0       	rjmp	.+2      	; 0x86 <LCDMix_4Bit+0xa>
    else LDPD7 &=~(1<<LCD_D7);
  84:	45 98       	cbi	0x08, 5	; 8
  if((data)&(0b01000000)) LDPD6 |=1<<LCD_D6;
  86:	86 ff       	sbrs	r24, 6
  88:	02 c0       	rjmp	.+4      	; 0x8e <LCDMix_4Bit+0x12>
  8a:	44 9a       	sbi	0x08, 4	; 8
  8c:	01 c0       	rjmp	.+2      	; 0x90 <LCDMix_4Bit+0x14>
    else LDPD6 &=~(1<<LCD_D6);
  8e:	44 98       	cbi	0x08, 4	; 8
  if((data)&(0b00100000)) LDPD5 |=1<<LCD_D5;
  90:	85 ff       	sbrs	r24, 5
  92:	02 c0       	rjmp	.+4      	; 0x98 <LCDMix_4Bit+0x1c>
  94:	43 9a       	sbi	0x08, 3	; 8
  96:	01 c0       	rjmp	.+2      	; 0x9a <LCDMix_4Bit+0x1e>
    else LDPD5&=~(1<<LCD_D5);
  98:	43 98       	cbi	0x08, 3	; 8
  if((data)&(0b00010000)) LDPD4 |=1<<LCD_D4;
  9a:	84 ff       	sbrs	r24, 4
  9c:	02 c0       	rjmp	.+4      	; 0xa2 <LCDMix_4Bit+0x26>
  9e:	42 9a       	sbi	0x08, 2	; 8
  a0:	08 95       	ret
    else LDPD4 &=~(1<<LCD_D4);	
  a2:	42 98       	cbi	0x08, 2	; 8
  a4:	08 95       	ret

000000a6 <LCDsendChar>:
		#define LCD_EntryModeSet	  0x06
		LCDsendCommand(LCD_EntryModeSet);

}	
void LCDsendChar(uint8_t ch)		//Sends Char to LCD
{
  a6:	cf 93       	push	r28
  a8:	c8 2f       	mov	r28, r24
	LCP&=~(1<<LCD_E);	
	LCP&=~(1<<LCD_RS);
	_delay_ms(1);
#endif
#ifdef LCD_4BIT_M
	LCDMix_4Bit(ch & 0b11110000);
  aa:	80 7f       	andi	r24, 0xF0	; 240
  ac:	e7 df       	rcall	.-50     	; 0x7c <LCDMix_4Bit>
	LDPRS |=1<<LCD_RS;
  ae:	40 9a       	sbi	0x08, 0	; 8
	LDPE |=1<<LCD_E;		
  b0:	41 9a       	sbi	0x08, 1	; 8
	#else
		//round up by default
		__ticks_dc = (uint32_t)(ceil(fabs(__tmp)));
	#endif

	__builtin_avr_delay_cycles(__ticks_dc);
  b2:	8f ec       	ldi	r24, 0xCF	; 207
  b4:	97 e0       	ldi	r25, 0x07	; 7
  b6:	01 97       	sbiw	r24, 0x01	; 1
  b8:	f1 f7       	brne	.-4      	; 0xb6 <LCDsendChar+0x10>
  ba:	00 c0       	rjmp	.+0      	; 0xbc <LCDsendChar+0x16>
  bc:	00 00       	nop
	_delay_ms(1);
	LDPE &=~(1<<LCD_E);
  be:	41 98       	cbi	0x08, 1	; 8
	LDPRS &=~(1<<LCD_RS);
  c0:	40 98       	cbi	0x08, 0	; 8
  c2:	8f ec       	ldi	r24, 0xCF	; 207
  c4:	97 e0       	ldi	r25, 0x07	; 7
  c6:	01 97       	sbiw	r24, 0x01	; 1
  c8:	f1 f7       	brne	.-4      	; 0xc6 <LCDsendChar+0x20>
  ca:	00 c0       	rjmp	.+0      	; 0xcc <LCDsendChar+0x26>
  cc:	00 00       	nop
	_delay_ms(1);
	LCDMix_4Bit((ch & 0b00001111)<<4);
  ce:	8c 2f       	mov	r24, r28
  d0:	82 95       	swap	r24
  d2:	80 7f       	andi	r24, 0xF0	; 240
  d4:	d3 df       	rcall	.-90     	; 0x7c <LCDMix_4Bit>
	LDPRS |=1<<LCD_RS;
  d6:	40 9a       	sbi	0x08, 0	; 8
	LDPE |=1<<LCD_E;		
  d8:	41 9a       	sbi	0x08, 1	; 8
  da:	8f ec       	ldi	r24, 0xCF	; 207
  dc:	97 e0       	ldi	r25, 0x07	; 7
  de:	01 97       	sbiw	r24, 0x01	; 1
  e0:	f1 f7       	brne	.-4      	; 0xde <LCDsendChar+0x38>
  e2:	00 c0       	rjmp	.+0      	; 0xe4 <LCDsendChar+0x3e>
  e4:	00 00       	nop
	_delay_ms(1);
	LDPE &=~(1<<LCD_E);
  e6:	41 98       	cbi	0x08, 1	; 8
	LDPRS &=~(1<<LCD_RS);
  e8:	40 98       	cbi	0x08, 0	; 8
  ea:	8f ec       	ldi	r24, 0xCF	; 207
  ec:	97 e0       	ldi	r25, 0x07	; 7
  ee:	01 97       	sbiw	r24, 0x01	; 1
  f0:	f1 f7       	brne	.-4      	; 0xee <LCDsendChar+0x48>
  f2:	00 c0       	rjmp	.+0      	; 0xf4 <LCDsendChar+0x4e>
  f4:	00 00       	nop
	_delay_ms(1);
	LDPE &=~(1<<LCD_E);
	LDPRS &=~(1<<LCD_RS);
	_delay_ms(1);	
#endif
}
  f6:	cf 91       	pop	r28
  f8:	08 95       	ret

000000fa <LCDsendCommand>:
void LCDsendCommand(uint8_t cmd)	//Sends Command to LCD
{
  fa:	cf 93       	push	r28
  fc:	c8 2f       	mov	r28, r24
	_delay_ms(1);
	LCP&=~(1<<LCD_E);
	_delay_ms(1);	
#endif
#ifdef LCD_4BIT_M
	LCDMix_4Bit(cmd & 0b11110000);
  fe:	80 7f       	andi	r24, 0xF0	; 240
 100:	bd df       	rcall	.-134    	; 0x7c <LCDMix_4Bit>
	LDPE |=1<<LCD_E;		
 102:	41 9a       	sbi	0x08, 1	; 8
 104:	8f ec       	ldi	r24, 0xCF	; 207
 106:	97 e0       	ldi	r25, 0x07	; 7
 108:	01 97       	sbiw	r24, 0x01	; 1
 10a:	f1 f7       	brne	.-4      	; 0x108 <LCDsendCommand+0xe>
 10c:	00 c0       	rjmp	.+0      	; 0x10e <LCDsendCommand+0x14>
 10e:	00 00       	nop
	_delay_ms(1);
	LDPE &=~(1<<LCD_E);
 110:	41 98       	cbi	0x08, 1	; 8
 112:	8f ec       	ldi	r24, 0xCF	; 207
 114:	97 e0       	ldi	r25, 0x07	; 7
 116:	01 97       	sbiw	r24, 0x01	; 1
 118:	f1 f7       	brne	.-4      	; 0x116 <LCDsendCommand+0x1c>
 11a:	00 c0       	rjmp	.+0      	; 0x11c <LCDsendCommand+0x22>
 11c:	00 00       	nop
	_delay_ms(1);
	LCDMix_4Bit((cmd & 0b00001111)<<4);
 11e:	8c 2f       	mov	r24, r28
 120:	82 95       	swap	r24
 122:	80 7f       	andi	r24, 0xF0	; 240
 124:	ab df       	rcall	.-170    	; 0x7c <LCDMix_4Bit>
	LDPE |=1<<LCD_E;		
 126:	41 9a       	sbi	0x08, 1	; 8
 128:	8f ec       	ldi	r24, 0xCF	; 207
 12a:	97 e0       	ldi	r25, 0x07	; 7
 12c:	01 97       	sbiw	r24, 0x01	; 1
 12e:	f1 f7       	brne	.-4      	; 0x12c <LCDsendCommand+0x32>
 130:	00 c0       	rjmp	.+0      	; 0x132 <LCDsendCommand+0x38>
 132:	00 00       	nop
	_delay_ms(1);
	LDPE &=~(1<<LCD_E);
 134:	41 98       	cbi	0x08, 1	; 8
 136:	8f ec       	ldi	r24, 0xCF	; 207
 138:	97 e0       	ldi	r25, 0x07	; 7
 13a:	01 97       	sbiw	r24, 0x01	; 1
 13c:	f1 f7       	brne	.-4      	; 0x13a <LCDsendCommand+0x40>
 13e:	00 c0       	rjmp	.+0      	; 0x140 <LCDsendCommand+0x46>
 140:	00 00       	nop
	LDPE |=1<<LCD_E;		
	_delay_ms(1);
	LDPE &=~(1<<LCD_E);
	_delay_ms(1);	
#endif
}		
 142:	cf 91       	pop	r28
 144:	08 95       	ret

00000146 <LCDinit>:
 146:	8f e2       	ldi	r24, 0x2F	; 47
 148:	95 e7       	ldi	r25, 0x75	; 117
 14a:	01 97       	sbiw	r24, 0x01	; 1
 14c:	f1 f7       	brne	.-4      	; 0x14a <LCDinit+0x4>
 14e:	00 c0       	rjmp	.+0      	; 0x150 <LCDinit+0xa>
 150:	00 00       	nop

#ifdef LCD_4BIT_M
	//4 mixed bit part
	_delay_ms(15);
	//zero to data pins
	LCDMix_4Bit(0b00000000);
 152:	80 e0       	ldi	r24, 0x00	; 0
 154:	93 df       	rcall	.-218    	; 0x7c <LCDMix_4Bit>
	//zero to control pins
	LDPRS &=~(1<<LCD_RS);
 156:	40 98       	cbi	0x08, 0	; 8
	LDPRW &=~(1<<LCD_RW);
 158:	28 98       	cbi	0x05, 0	; 5
	LDPE &=~(1<<LCD_E);
 15a:	41 98       	cbi	0x08, 1	; 8
	//set data direction
	LDDD4 |=1<<LCD_D4;
 15c:	3a 9a       	sbi	0x07, 2	; 7
	LDDD5 |=1<<LCD_D5;
 15e:	3b 9a       	sbi	0x07, 3	; 7
	LDDD6 |=1<<LCD_D6;
 160:	3c 9a       	sbi	0x07, 4	; 7
	LDDD7 |=1<<LCD_D7;
 162:	3d 9a       	sbi	0x07, 5	; 7
	//control direction pins
	LDDRS |=1<<LCD_RS;
 164:	38 9a       	sbi	0x07, 0	; 7
	LDDRW |=1<<LCD_RW;
 166:	20 9a       	sbi	0x04, 0	; 4
	LDDE |=1<<LCD_E;
 168:	39 9a       	sbi	0x07, 1	; 7
   //---------one------
	LCDMix_4Bit(0b00110000);
 16a:	80 e3       	ldi	r24, 0x30	; 48
 16c:	87 df       	rcall	.-242    	; 0x7c <LCDMix_4Bit>
	LDPE |=1<<LCD_E;		
 16e:	41 9a       	sbi	0x08, 1	; 8
 170:	8f ec       	ldi	r24, 0xCF	; 207
 172:	97 e0       	ldi	r25, 0x07	; 7
 174:	01 97       	sbiw	r24, 0x01	; 1
 176:	f1 f7       	brne	.-4      	; 0x174 <LCDinit+0x2e>
 178:	00 c0       	rjmp	.+0      	; 0x17a <LCDinit+0x34>
 17a:	00 00       	nop
	_delay_ms(1);
	LDPE &=~(1<<LCD_E);
 17c:	41 98       	cbi	0x08, 1	; 8
 17e:	8f e0       	ldi	r24, 0x0F	; 15
 180:	97 e2       	ldi	r25, 0x27	; 39
 182:	01 97       	sbiw	r24, 0x01	; 1
 184:	f1 f7       	brne	.-4      	; 0x182 <LCDinit+0x3c>
 186:	00 c0       	rjmp	.+0      	; 0x188 <LCDinit+0x42>
 188:	00 00       	nop
	_delay_ms(5);
	//-----------two-----------
	LCDMix_4Bit(0b00110000);
 18a:	80 e3       	ldi	r24, 0x30	; 48
 18c:	77 df       	rcall	.-274    	; 0x7c <LCDMix_4Bit>
	LDPE |=1<<LCD_E;		
 18e:	41 9a       	sbi	0x08, 1	; 8
 190:	8f ec       	ldi	r24, 0xCF	; 207
 192:	97 e0       	ldi	r25, 0x07	; 7
 194:	01 97       	sbiw	r24, 0x01	; 1
 196:	f1 f7       	brne	.-4      	; 0x194 <LCDinit+0x4e>
 198:	00 c0       	rjmp	.+0      	; 0x19a <LCDinit+0x54>
 19a:	00 00       	nop
	_delay_ms(1);
	LDPE &=~(1<<LCD_E);
 19c:	41 98       	cbi	0x08, 1	; 8
 19e:	8f ec       	ldi	r24, 0xCF	; 207
 1a0:	97 e0       	ldi	r25, 0x07	; 7
 1a2:	01 97       	sbiw	r24, 0x01	; 1
 1a4:	f1 f7       	brne	.-4      	; 0x1a2 <LCDinit+0x5c>
 1a6:	00 c0       	rjmp	.+0      	; 0x1a8 <LCDinit+0x62>
 1a8:	00 00       	nop
	_delay_ms(1);
	//-------three-------------
	LCDMix_4Bit(0b00110000);
 1aa:	80 e3       	ldi	r24, 0x30	; 48
 1ac:	67 df       	rcall	.-306    	; 0x7c <LCDMix_4Bit>
	LDPE |=1<<LCD_E;		
 1ae:	41 9a       	sbi	0x08, 1	; 8
 1b0:	8f ec       	ldi	r24, 0xCF	; 207
 1b2:	97 e0       	ldi	r25, 0x07	; 7
 1b4:	01 97       	sbiw	r24, 0x01	; 1
 1b6:	f1 f7       	brne	.-4      	; 0x1b4 <LCDinit+0x6e>
 1b8:	00 c0       	rjmp	.+0      	; 0x1ba <LCDinit+0x74>
 1ba:	00 00       	nop
	_delay_ms(1);
	LDPE &=~(1<<LCD_E);
 1bc:	41 98       	cbi	0x08, 1	; 8
 1be:	8f ec       	ldi	r24, 0xCF	; 207
 1c0:	97 e0       	ldi	r25, 0x07	; 7
 1c2:	01 97       	sbiw	r24, 0x01	; 1
 1c4:	f1 f7       	brne	.-4      	; 0x1c2 <LCDinit+0x7c>
 1c6:	00 c0       	rjmp	.+0      	; 0x1c8 <LCDinit+0x82>
 1c8:	00 00       	nop
	_delay_ms(1);
	//-------four-------------
	LCDMix_4Bit(0b00100000);
 1ca:	80 e2       	ldi	r24, 0x20	; 32
 1cc:	57 df       	rcall	.-338    	; 0x7c <LCDMix_4Bit>
	LDPE |=1<<LCD_E;
 1ce:	41 9a       	sbi	0x08, 1	; 8
 1d0:	8f ec       	ldi	r24, 0xCF	; 207
 1d2:	97 e0       	ldi	r25, 0x07	; 7
 1d4:	01 97       	sbiw	r24, 0x01	; 1
 1d6:	f1 f7       	brne	.-4      	; 0x1d4 <LCDinit+0x8e>
 1d8:	00 c0       	rjmp	.+0      	; 0x1da <LCDinit+0x94>
 1da:	00 00       	nop
	_delay_ms(1);
	LDPE &=~(1<<LCD_E);
 1dc:	41 98       	cbi	0x08, 1	; 8
 1de:	8f ec       	ldi	r24, 0xCF	; 207
 1e0:	97 e0       	ldi	r25, 0x07	; 7
 1e2:	01 97       	sbiw	r24, 0x01	; 1
 1e4:	f1 f7       	brne	.-4      	; 0x1e2 <LCDinit+0x9c>
 1e6:	00 c0       	rjmp	.+0      	; 0x1e8 <LCDinit+0xa2>
 1e8:	00 00       	nop
	_delay_ms(1);
	//--------4 bit--dual line---------------
	LCDsendCommand(0b00101000);
 1ea:	88 e2       	ldi	r24, 0x28	; 40
 1ec:	86 df       	rcall	.-244    	; 0xfa <LCDsendCommand>
   //-----increment address, invisible cursor shift------
	LCDsendCommand(0b00001100);
 1ee:	8c e0       	ldi	r24, 0x0C	; 12
 1f0:	84 df       	rcall	.-248    	; 0xfa <LCDsendCommand>
		ch=ch+8;
	}
		*/
	//мой код!!! Иначе глюки при резете МК		
		#define LCD_EntryModeSet	  0x06
		LCDsendCommand(LCD_EntryModeSet);
 1f2:	86 e0       	ldi	r24, 0x06	; 6
 1f4:	82 cf       	rjmp	.-252    	; 0xfa <LCDsendCommand>

000001f6 <LCDclr>:
	_delay_ms(1);	
#endif
}		
void LCDclr(void)				//Clears LCD
{
	LCDsendCommand(1<<LCD_CLR);
 1f6:	81 e0       	ldi	r24, 0x01	; 1
 1f8:	80 cf       	rjmp	.-256    	; 0xfa <LCDsendCommand>

000001fa <LCDGotoXY>:
}
void LCDGotoXY(uint8_t x, uint8_t y)	//Cursor to X Y position
{
	register uint8_t DDRAMAddr;
	// remap lines into proper order
	switch(y)
 1fa:	62 30       	cpi	r22, 0x02	; 2
 1fc:	31 f0       	breq	.+12     	; 0x20a <LCDGotoXY+0x10>
 1fe:	63 30       	cpi	r22, 0x03	; 3
 200:	31 f0       	breq	.+12     	; 0x20e <LCDGotoXY+0x14>
 202:	61 30       	cpi	r22, 0x01	; 1
 204:	29 f4       	brne	.+10     	; 0x210 <LCDGotoXY+0x16>
	{
	case 0: DDRAMAddr = LCD_LINE0_DDRAMADDR+x; break;
	case 1: DDRAMAddr = LCD_LINE1_DDRAMADDR+x; break;
 206:	80 5c       	subi	r24, 0xC0	; 192
 208:	03 c0       	rjmp	.+6      	; 0x210 <LCDGotoXY+0x16>
	case 2: DDRAMAddr = LCD_LINE2_DDRAMADDR+x; break;
 20a:	8c 5e       	subi	r24, 0xEC	; 236
 20c:	01 c0       	rjmp	.+2      	; 0x210 <LCDGotoXY+0x16>
	case 3: DDRAMAddr = LCD_LINE3_DDRAMADDR+x; break;
 20e:	8c 5a       	subi	r24, 0xAC	; 172
	default: DDRAMAddr = LCD_LINE0_DDRAMADDR+x;
	}
	// set data address
	LCDsendCommand(1<<LCD_DDRAM | DDRAMAddr);
 210:	80 68       	ori	r24, 0x80	; 128
 212:	73 cf       	rjmp	.-282    	; 0xfa <LCDsendCommand>

00000214 <LCDstring>:
void LCDhome(void)			//LCD cursor home
{
	LCDsendCommand(1<<LCD_HOME);
}
void LCDstring(uint8_t* data, uint8_t nBytes)	//Outputs string to LCD
{
 214:	ff 92       	push	r15
 216:	0f 93       	push	r16
 218:	1f 93       	push	r17
 21a:	cf 93       	push	r28
 21c:	df 93       	push	r29
 21e:	f6 2e       	mov	r15, r22
register uint8_t i;
register uint8_t j=0;

	// check to make sure we have a good pointer
	if (!data) return;
 220:	00 97       	sbiw	r24, 0x00	; 0
 222:	99 f0       	breq	.+38     	; 0x24a <LCDstring+0x36>
 224:	ec 01       	movw	r28, r24
 226:	00 e0       	ldi	r16, 0x00	; 0
 228:	10 e0       	ldi	r17, 0x00	; 0

	// print data
	for(i=0; i<nBytes; i++)
 22a:	1f 15       	cp	r17, r15
 22c:	71 f0       	breq	.+28     	; 0x24a <LCDstring+0x36>
	{
		if (LCD_LINES>1) {
			if ((i>0) & (i%LCD_LINE_LENGTH==0)) {
 22e:	11 23       	and	r17, r17
 230:	41 f0       	breq	.+16     	; 0x242 <LCDstring+0x2e>
 232:	81 2f       	mov	r24, r17
 234:	8f 70       	andi	r24, 0x0F	; 15
 236:	29 f4       	brne	.+10     	; 0x242 <LCDstring+0x2e>
				if (j<LCD_LINES) {
 238:	02 30       	cpi	r16, 0x02	; 2
 23a:	18 f4       	brcc	.+6      	; 0x242 <LCDstring+0x2e>
					j++;
 23c:	0f 5f       	subi	r16, 0xFF	; 255
					LCDGotoXY(0,j);
 23e:	60 2f       	mov	r22, r16
 240:	dc df       	rcall	.-72     	; 0x1fa <LCDGotoXY>
				}				
			}
		}				
		LCDsendChar(data[i]);
 242:	89 91       	ld	r24, Y+
 244:	30 df       	rcall	.-416    	; 0xa6 <LCDsendChar>

	// check to make sure we have a good pointer
	if (!data) return;

	// print data
	for(i=0; i<nBytes; i++)
 246:	1f 5f       	subi	r17, 0xFF	; 255
 248:	f0 cf       	rjmp	.-32     	; 0x22a <LCDstring+0x16>
				}				
			}
		}				
		LCDsendChar(data[i]);
	}
}
 24a:	df 91       	pop	r29
 24c:	cf 91       	pop	r28
 24e:	1f 91       	pop	r17
 250:	0f 91       	pop	r16
 252:	ff 90       	pop	r15
 254:	08 95       	ret

00000256 <LCDcursorOnBlink>:
{
	LCDsendCommand(0x0E);
}
void LCDcursorOnBlink(void)	//displays LCD blinking cursor
{
	LCDsendCommand(0x0F);
 256:	8f e0       	ldi	r24, 0x0F	; 15
 258:	50 cf       	rjmp	.-352    	; 0xfa <LCDsendCommand>

0000025a <LCDcursorOFF>:
}
void LCDcursorOFF(void)	//turns OFF cursor
{
	LCDsendCommand(0x0C);
 25a:	8c e0       	ldi	r24, 0x0C	; 12
 25c:	4e cf       	rjmp	.-356    	; 0xfa <LCDsendCommand>

0000025e <__vector_9>:
int8_t EncStep =0; //счетчик кол-ва шагов


// Прерырвание по переполнению таймера 2
ISR(TIMER2_OVF_vect)
{
 25e:	1f 92       	push	r1
 260:	0f 92       	push	r0
 262:	0f b6       	in	r0, 0x3f	; 63
 264:	0f 92       	push	r0
 266:	11 24       	eor	r1, r1
 268:	8f 93       	push	r24
 26a:	9f 93       	push	r25
	//уменьшаем на 1 сек/мин/час, если предыдущий ушел меньше 0
    if (--ExpTime.second==255)    //из примера + доработано
 26c:	80 91 08 01 	lds	r24, 0x0108
 270:	81 50       	subi	r24, 0x01	; 1
 272:	80 93 08 01 	sts	0x0108, r24
 276:	8f 3f       	cpi	r24, 0xFF	; 255
 278:	b1 f4       	brne	.+44     	; 0x2a6 <__vector_9+0x48>
    {
	    ExpTime.second=59;
 27a:	9b e3       	ldi	r25, 0x3B	; 59
 27c:	90 93 08 01 	sts	0x0108, r25
	    
	    if (--ExpTime.minute==255)
 280:	80 91 09 01 	lds	r24, 0x0109
 284:	81 50       	subi	r24, 0x01	; 1
 286:	80 93 09 01 	sts	0x0109, r24
 28a:	8f 3f       	cpi	r24, 0xFF	; 255
 28c:	61 f4       	brne	.+24     	; 0x2a6 <__vector_9+0x48>
	    {
		    ExpTime.minute=59;
 28e:	90 93 09 01 	sts	0x0109, r25

		    if (--ExpTime.hour==255)
 292:	80 91 0a 01 	lds	r24, 0x010A
 296:	81 50       	subi	r24, 0x01	; 1
 298:	80 93 0a 01 	sts	0x010A, r24
 29c:	8f 3f       	cpi	r24, 0xFF	; 255
 29e:	19 f4       	brne	.+6      	; 0x2a6 <__vector_9+0x48>
		    {
			    flagTimeStop=1;
 2a0:	81 e0       	ldi	r24, 0x01	; 1
 2a2:	80 93 04 01 	sts	0x0104, r24
		    }
	    }
    }
	
	flagWork|=(1<<LCD_UPD);
 2a6:	80 91 03 01 	lds	r24, 0x0103
 2aa:	80 62       	ori	r24, 0x20	; 32
 2ac:	80 93 03 01 	sts	0x0103, r24
}
 2b0:	9f 91       	pop	r25
 2b2:	8f 91       	pop	r24
 2b4:	0f 90       	pop	r0
 2b6:	0f be       	out	0x3f, r0	; 63
 2b8:	0f 90       	pop	r0
 2ba:	1f 90       	pop	r1
 2bc:	18 95       	reti

000002be <__vector_1>:

//прерывание кнопка1
ISR(INT0_vect)
{
 2be:	1f 92       	push	r1
 2c0:	0f 92       	push	r0
 2c2:	0f b6       	in	r0, 0x3f	; 63
 2c4:	0f 92       	push	r0
 2c6:	11 24       	eor	r1, r1
 2c8:	8f 93       	push	r24
 2ca:	9f 93       	push	r25
	cli();
 2cc:	f8 94       	cli
	EIFR=1<<INT0;
 2ce:	81 e0       	ldi	r24, 0x01	; 1
 2d0:	8c bb       	out	0x1c, r24	; 28
 2d2:	8f e3       	ldi	r24, 0x3F	; 63
 2d4:	9c e9       	ldi	r25, 0x9C	; 156
 2d6:	01 97       	sbiw	r24, 0x01	; 1
 2d8:	f1 f7       	brne	.-4      	; 0x2d6 <__vector_1+0x18>
 2da:	00 c0       	rjmp	.+0      	; 0x2dc <__vector_1+0x1e>
 2dc:	00 00       	nop
	_delay_ms(20);
	if (!GET_PORT_DATA(D,TACT1_PIN))
 2de:	4a 99       	sbic	0x09, 2	; 9
 2e0:	03 c0       	rjmp	.+6      	; 0x2e8 <__vector_1+0x2a>
	{
		//кнопка нажата
		flagTact1=1;
 2e2:	81 e0       	ldi	r24, 0x01	; 1
 2e4:	80 93 06 01 	sts	0x0106, r24
		{
			//кнопка была нажата
			Flag_tact1=0;
		}
	}*/
	sei();
 2e8:	78 94       	sei
}
 2ea:	9f 91       	pop	r25
 2ec:	8f 91       	pop	r24
 2ee:	0f 90       	pop	r0
 2f0:	0f be       	out	0x3f, r0	; 63
 2f2:	0f 90       	pop	r0
 2f4:	1f 90       	pop	r1
 2f6:	18 95       	reti

000002f8 <__vector_2>:

//прерывание кнопка2
ISR(INT1_vect)
{
 2f8:	1f 92       	push	r1
 2fa:	0f 92       	push	r0
 2fc:	0f b6       	in	r0, 0x3f	; 63
 2fe:	0f 92       	push	r0
 300:	11 24       	eor	r1, r1
 302:	8f 93       	push	r24
 304:	9f 93       	push	r25
	cli();
 306:	f8 94       	cli
	EIFR=1<<INT1;
 308:	82 e0       	ldi	r24, 0x02	; 2
 30a:	8c bb       	out	0x1c, r24	; 28
 30c:	8f e3       	ldi	r24, 0x3F	; 63
 30e:	9c e9       	ldi	r25, 0x9C	; 156
 310:	01 97       	sbiw	r24, 0x01	; 1
 312:	f1 f7       	brne	.-4      	; 0x310 <__vector_2+0x18>
 314:	00 c0       	rjmp	.+0      	; 0x316 <__vector_2+0x1e>
 316:	00 00       	nop
	_delay_ms(20);
	if (!GET_PORT_DATA(D,TACT2_PIN))
 318:	4b 99       	sbic	0x09, 3	; 9
 31a:	03 c0       	rjmp	.+6      	; 0x322 <__vector_2+0x2a>
	{
		//кнопка нажата
		flagTact2=1;
 31c:	81 e0       	ldi	r24, 0x01	; 1
 31e:	80 93 05 01 	sts	0x0105, r24
		{
			//кнопка была нажата
			Flag_tact2=0;
		}
	}*/
	sei();
 322:	78 94       	sei
}
 324:	9f 91       	pop	r25
 326:	8f 91       	pop	r24
 328:	0f 90       	pop	r0
 32a:	0f be       	out	0x3f, r0	; 63
 32c:	0f 90       	pop	r0
 32e:	1f 90       	pop	r1
 330:	18 95       	reti

00000332 <initTimer2>:


//инициализация часового - таймера2
void initTimer2 (void)
{
	cli();
 332:	f8 94       	cli
	// Запрещаем прерывания таймера 2 на всякий
	TIMSK2 &=~(1<<OCIE2A | 1<<OCIE2B | 1<< TOIE2);
 334:	80 91 70 00 	lds	r24, 0x0070
 338:	88 7f       	andi	r24, 0xF8	; 248
 33a:	80 93 70 00 	sts	0x0070, r24
	//разрешаем внешнее тактирование и выставляем асинхронный режим
//	ASSR|=(1<<EXCLK)|(1<<AS2);
	ASSR|=(1<<AS2);
 33e:	80 91 b6 00 	lds	r24, 0x00B6
 342:	80 62       	ori	r24, 0x20	; 32
 344:	80 93 b6 00 	sts	0x00B6, r24
	TCNT2=0;
 348:	10 92 b2 00 	sts	0x00B2, r1
	//предделитель на 128, для переполнения (255 тиков) за 1 сек
	TCCR2B|= (1<<CS22)|(0<<CS21)|(1<<CS20);
 34c:	80 91 b1 00 	lds	r24, 0x00B1
 350:	85 60       	ori	r24, 0x05	; 5
 352:	80 93 b1 00 	sts	0x00B1, r24
	
	//_delay_ms(50);
	while (ASSR&0x1F) {} //если хоть 1 флаг выставлен - ждем
 356:	80 91 b6 00 	lds	r24, 0x00B6
 35a:	8f 71       	andi	r24, 0x1F	; 31
 35c:	e1 f7       	brne	.-8      	; 0x356 <initTimer2+0x24>

	// Сбрасываем флаги прерываний, на всякий случай.
	TIFR2 |= (1<<OCIE2B)|(1<<OCIE2A)|(1<< TOIE2);
 35e:	87 b3       	in	r24, 0x17	; 23
 360:	87 60       	ori	r24, 0x07	; 7
 362:	87 bb       	out	0x17, r24	; 23
	//разрешаем прерывания по переполнению
	TIMSK2|=(1<<TOIE2);
 364:	80 91 70 00 	lds	r24, 0x0070
 368:	81 60       	ori	r24, 0x01	; 1
 36a:	80 93 70 00 	sts	0x0070, r24
	sei();
 36e:	78 94       	sei
 370:	08 95       	ret

00000372 <disableTimer2>:
}

void disableTimer2 (void)
{
	// Запрещаем прерывания таймера 2 на всякий
	TIMSK2 &=~(1<<OCIE2A | 1<<OCIE2B | 1<< TOIE2);
 372:	80 91 70 00 	lds	r24, 0x0070
 376:	88 7f       	andi	r24, 0xF8	; 248
 378:	80 93 70 00 	sts	0x0070, r24
	ASSR&=~(1<<AS2);
 37c:	80 91 b6 00 	lds	r24, 0x00B6
 380:	8f 7d       	andi	r24, 0xDF	; 223
 382:	80 93 b6 00 	sts	0x00B6, r24
	while (ASSR&0x1F) {} //если хоть 1 флагн выставлен - ждем
 386:	80 91 b6 00 	lds	r24, 0x00B6
 38a:	8f 71       	andi	r24, 0x1F	; 31
 38c:	e1 f7       	brne	.-8      	; 0x386 <disableTimer2+0x14>
	// Сбрасываем флаги прерываний, на всякий случай.
	TIFR2 |= (1<<OCIE2B)|(1<<OCIE2A)|(1<< TOIE2);
 38e:	87 b3       	in	r24, 0x17	; 23
 390:	87 60       	ori	r24, 0x07	; 7
 392:	87 bb       	out	0x17, r24	; 23
 394:	08 95       	ret

00000396 <buzz>:

void buzz(uint16_t count)
{
	uint16_t j;
	
	for (j=1;j<count;j++)
 396:	21 e0       	ldi	r18, 0x01	; 1
 398:	30 e0       	ldi	r19, 0x00	; 0
	{
		PORTD^=(1<<BUZZ_PIN);
 39a:	51 e0       	ldi	r21, 0x01	; 1

void buzz(uint16_t count)
{
	uint16_t j;
	
	for (j=1;j<count;j++)
 39c:	28 17       	cp	r18, r24
 39e:	39 07       	cpc	r19, r25
 3a0:	60 f4       	brcc	.+24     	; 0x3ba <buzz+0x24>
	{
		PORTD^=(1<<BUZZ_PIN);
 3a2:	4b b1       	in	r20, 0x0b	; 11
 3a4:	45 27       	eor	r20, r21
 3a6:	4b b9       	out	0x0b, r20	; 11
 3a8:	ef e6       	ldi	r30, 0x6F	; 111
 3aa:	f7 e1       	ldi	r31, 0x17	; 23
 3ac:	31 97       	sbiw	r30, 0x01	; 1
 3ae:	f1 f7       	brne	.-4      	; 0x3ac <buzz+0x16>
 3b0:	00 c0       	rjmp	.+0      	; 0x3b2 <buzz+0x1c>
 3b2:	00 00       	nop

void buzz(uint16_t count)
{
	uint16_t j;
	
	for (j=1;j<count;j++)
 3b4:	2f 5f       	subi	r18, 0xFF	; 255
 3b6:	3f 4f       	sbci	r19, 0xFF	; 255
 3b8:	f1 cf       	rjmp	.-30     	; 0x39c <buzz+0x6>
	{
		PORTD^=(1<<BUZZ_PIN);
		_delay_ms(3);
	}
	
	PORTD&=~(1<<BUZZ_PIN);	
 3ba:	58 98       	cbi	0x0b, 0	; 11
 3bc:	08 95       	ret

000003be <encPollDelta>:


int8_t	encPollDelta()//вычисляем смещение энкодера и направление
{
	
	encCurState <<= 2;
 3be:	20 91 07 01 	lds	r18, 0x0107
 3c2:	22 0f       	add	r18, r18
 3c4:	22 0f       	add	r18, r18
 3c6:	20 93 07 01 	sts	0x0107, r18
	encCurState &= 0b00001100;
 3ca:	20 91 07 01 	lds	r18, 0x0107
 3ce:	2c 70       	andi	r18, 0x0C	; 12
 3d0:	20 93 07 01 	sts	0x0107, r18
	encCurState += (GET_ENCODER_PORT_DATA(ENCPOLL_A_PORT, ENCPOLL_A_PIN)<<1)|GET_ENCODER_PORT_DATA(ENCPOLL_B_PORT, ENCPOLL_B_PIN);
 3d4:	20 91 07 01 	lds	r18, 0x0107
 3d8:	49 b1       	in	r20, 0x09	; 9
 3da:	39 b1       	in	r19, 0x09	; 9
 3dc:	44 fb       	bst	r20, 4
 3de:	88 27       	eor	r24, r24
 3e0:	80 f9       	bld	r24, 0
 3e2:	90 e0       	ldi	r25, 0x00	; 0
 3e4:	88 0f       	add	r24, r24
 3e6:	99 1f       	adc	r25, r25
 3e8:	35 fb       	bst	r19, 5
 3ea:	99 27       	eor	r25, r25
 3ec:	90 f9       	bld	r25, 0
 3ee:	89 2b       	or	r24, r25
 3f0:	82 0f       	add	r24, r18
 3f2:	80 93 07 01 	sts	0x0107, r24
	
	return pgm_read_byte(&(EncState[encCurState]));
 3f6:	e0 91 07 01 	lds	r30, 0x0107
 3fa:	f0 e0       	ldi	r31, 0x00	; 0
 3fc:	ec 5c       	subi	r30, 0xCC	; 204
 3fe:	ff 4f       	sbci	r31, 0xFF	; 255
 400:	84 91       	lpm	r24, Z
}
 402:	08 95       	ret

00000404 <fillZero>:

void fillZero(char *d)
{
 404:	fc 01       	movw	r30, r24
	if (!d[1]) 
 406:	81 81       	ldd	r24, Z+1	; 0x01
 408:	81 11       	cpse	r24, r1
 40a:	04 c0       	rjmp	.+8      	; 0x414 <fillZero+0x10>
	{
		d[1]=d[0];
 40c:	80 81       	ld	r24, Z
 40e:	81 83       	std	Z+1, r24	; 0x01
		d[0]=0x30;//"0"
 410:	80 e3       	ldi	r24, 0x30	; 48
 412:	80 83       	st	Z, r24
 414:	08 95       	ret

00000416 <showTime>:
	}
}

void showTime(void)
{
 416:	1f 93       	push	r17
 418:	cf 93       	push	r28
 41a:	df 93       	push	r29
 41c:	cd b7       	in	r28, 0x3d	; 61
 41e:	de b7       	in	r29, 0x3e	; 62
 420:	2a 97       	sbiw	r28, 0x0a	; 10
 422:	0f b6       	in	r0, 0x3f	; 63
 424:	f8 94       	cli
 426:	de bf       	out	0x3e, r29	; 62
 428:	0f be       	out	0x3f, r0	; 63
 42a:	cd bf       	out	0x3d, r28	; 61
	char digit[2];
	char string[8];
//	uint8_t pos;
	
	//LCDclr();
	LCDcursorOFF();
 42c:	16 df       	rcall	.-468    	; 0x25a <LCDcursorOFF>
	case 2: DDRAMAddr = LCD_LINE2_DDRAMADDR+x; break;
	case 3: DDRAMAddr = LCD_LINE3_DDRAMADDR+x; break;
	default: DDRAMAddr = LCD_LINE0_DDRAMADDR+x;
	}
	// set data address
	LCDsendCommand(1<<LCD_DDRAM | DDRAMAddr);
 42e:	84 e8       	ldi	r24, 0x84	; 132
 430:	64 de       	rcall	.-824    	; 0xfa <LCDsendCommand>
	LCDGotoXY(4,0);
	itoa(ExpTime.hour,digit,10);
 432:	80 91 0a 01 	lds	r24, 0x010A
    } else if (__radix < 2 || __radix > 36) {
	*__s = 0;
	return __s;
    } else {
	extern char *__itoa_ncheck (int, char *, unsigned char);
	return __itoa_ncheck (__val, __s, __radix);
 436:	4a e0       	ldi	r20, 0x0A	; 10
 438:	be 01       	movw	r22, r28
 43a:	67 5f       	subi	r22, 0xF7	; 247
 43c:	7f 4f       	sbci	r23, 0xFF	; 255
 43e:	90 e0       	ldi	r25, 0x00	; 0
 440:	b7 d1       	rcall	.+878    	; 0x7b0 <__itoa_ncheck>
	fillZero(digit);
 442:	ce 01       	movw	r24, r28
 444:	09 96       	adiw	r24, 0x09	; 9
 446:	de df       	rcall	.-68     	; 0x404 <fillZero>
	string[0]=digit[0];
 448:	89 85       	ldd	r24, Y+9	; 0x09
 44a:	89 83       	std	Y+1, r24	; 0x01
	string[1]=digit[1];
 44c:	8a 85       	ldd	r24, Y+10	; 0x0a
 44e:	8a 83       	std	Y+2, r24	; 0x02
	string[2]=0x3A;//":"
 450:	1a e3       	ldi	r17, 0x3A	; 58
 452:	1b 83       	std	Y+3, r17	; 0x03
	itoa(ExpTime.minute,digit,10);
 454:	80 91 09 01 	lds	r24, 0x0109
 458:	4a e0       	ldi	r20, 0x0A	; 10
 45a:	be 01       	movw	r22, r28
 45c:	67 5f       	subi	r22, 0xF7	; 247
 45e:	7f 4f       	sbci	r23, 0xFF	; 255
 460:	90 e0       	ldi	r25, 0x00	; 0
 462:	a6 d1       	rcall	.+844    	; 0x7b0 <__itoa_ncheck>
	fillZero(digit);
 464:	ce 01       	movw	r24, r28
 466:	09 96       	adiw	r24, 0x09	; 9
 468:	cd df       	rcall	.-102    	; 0x404 <fillZero>
	string[3]=digit[0];
 46a:	89 85       	ldd	r24, Y+9	; 0x09
 46c:	8c 83       	std	Y+4, r24	; 0x04
	string[4]=digit[1];
 46e:	8a 85       	ldd	r24, Y+10	; 0x0a
 470:	8d 83       	std	Y+5, r24	; 0x05
	string[5]=0x3A;//":"
 472:	1e 83       	std	Y+6, r17	; 0x06
	itoa(ExpTime.second,digit,10);
 474:	80 91 08 01 	lds	r24, 0x0108
 478:	4a e0       	ldi	r20, 0x0A	; 10
 47a:	be 01       	movw	r22, r28
 47c:	67 5f       	subi	r22, 0xF7	; 247
 47e:	7f 4f       	sbci	r23, 0xFF	; 255
 480:	90 e0       	ldi	r25, 0x00	; 0
 482:	96 d1       	rcall	.+812    	; 0x7b0 <__itoa_ncheck>
	fillZero(digit);
 484:	ce 01       	movw	r24, r28
 486:	09 96       	adiw	r24, 0x09	; 9
 488:	bd df       	rcall	.-134    	; 0x404 <fillZero>
	string[6]=digit[0];
 48a:	89 85       	ldd	r24, Y+9	; 0x09
 48c:	8f 83       	std	Y+7, r24	; 0x07
	string[7]=digit[1];
 48e:	8a 85       	ldd	r24, Y+10	; 0x0a
 490:	88 87       	std	Y+8, r24	; 0x08
	LCDstring((uint8_t*)string,8);
 492:	68 e0       	ldi	r22, 0x08	; 8
 494:	ce 01       	movw	r24, r28
 496:	01 96       	adiw	r24, 0x01	; 1
 498:	bd de       	rcall	.-646    	; 0x214 <LCDstring>
	
}
 49a:	2a 96       	adiw	r28, 0x0a	; 10
 49c:	0f b6       	in	r0, 0x3f	; 63
 49e:	f8 94       	cli
 4a0:	de bf       	out	0x3e, r29	; 62
 4a2:	0f be       	out	0x3f, r0	; 63
 4a4:	cd bf       	out	0x3d, r28	; 61
 4a6:	df 91       	pop	r29
 4a8:	cf 91       	pop	r28
 4aa:	1f 91       	pop	r17
 4ac:	08 95       	ret

000004ae <checkTime>:

void checkTime(void)
{
	if (ExpTime.second>150) ExpTime.second=59;
 4ae:	80 91 08 01 	lds	r24, 0x0108
 4b2:	87 39       	cpi	r24, 0x97	; 151
 4b4:	18 f0       	brcs	.+6      	; 0x4bc <checkTime+0xe>
 4b6:	8b e3       	ldi	r24, 0x3B	; 59
 4b8:	80 93 08 01 	sts	0x0108, r24
	if (ExpTime.minute>150) ExpTime.minute=59;
 4bc:	80 91 09 01 	lds	r24, 0x0109
 4c0:	87 39       	cpi	r24, 0x97	; 151
 4c2:	18 f0       	brcs	.+6      	; 0x4ca <checkTime+0x1c>
 4c4:	8b e3       	ldi	r24, 0x3B	; 59
 4c6:	80 93 09 01 	sts	0x0109, r24
	if (ExpTime.hour>150) ExpTime.hour=23;
 4ca:	80 91 0a 01 	lds	r24, 0x010A
 4ce:	87 39       	cpi	r24, 0x97	; 151
 4d0:	18 f0       	brcs	.+6      	; 0x4d8 <checkTime+0x2a>
 4d2:	87 e1       	ldi	r24, 0x17	; 23
 4d4:	80 93 0a 01 	sts	0x010A, r24

	if (ExpTime.second>59) ExpTime.second=0;
 4d8:	80 91 08 01 	lds	r24, 0x0108
 4dc:	8c 33       	cpi	r24, 0x3C	; 60
 4de:	10 f0       	brcs	.+4      	; 0x4e4 <checkTime+0x36>
 4e0:	10 92 08 01 	sts	0x0108, r1
	if (ExpTime.minute>59) ExpTime.minute=0;
 4e4:	80 91 09 01 	lds	r24, 0x0109
 4e8:	8c 33       	cpi	r24, 0x3C	; 60
 4ea:	10 f0       	brcs	.+4      	; 0x4f0 <checkTime+0x42>
 4ec:	10 92 09 01 	sts	0x0109, r1
	if (ExpTime.hour>23) ExpTime.hour=0;
 4f0:	80 91 0a 01 	lds	r24, 0x010A
 4f4:	88 31       	cpi	r24, 0x18	; 24
 4f6:	10 f0       	brcs	.+4      	; 0x4fc <checkTime+0x4e>
 4f8:	10 92 0a 01 	sts	0x010A, r1

	//обновляем экран	
	flagWork|=(1<<LCD_UPD);
 4fc:	80 91 03 01 	lds	r24, 0x0103
 500:	80 62       	ori	r24, 0x20	; 32
 502:	80 93 03 01 	sts	0x0103, r24
 506:	08 95       	ret

00000508 <main>:

}


int main(void)
{
 508:	cf 93       	push	r28
 50a:	df 93       	push	r29
 50c:	cd b7       	in	r28, 0x3d	; 61
 50e:	de b7       	in	r29, 0x3e	; 62
 510:	60 97       	sbiw	r28, 0x10	; 16
 512:	0f b6       	in	r0, 0x3f	; 63
 514:	f8 94       	cli
 516:	de bf       	out	0x3e, r29	; 62
 518:	0f be       	out	0x3f, r0	; 63
 51a:	cd bf       	out	0x3d, r28	; 61

	uint8_t txt[16];
	uint8_t i;
	char pos;

	cli();
 51c:	f8 94       	cli
	//инициализация портов //сделать инициализацию энкодера отдельной функцией
	DDRC=0;
 51e:	17 b8       	out	0x07, r1	; 7
	PORTC=0xFF;
 520:	8f ef       	ldi	r24, 0xFF	; 255
 522:	88 b9       	out	0x08, r24	; 8
	DDRB=0;
 524:	14 b8       	out	0x04, r1	; 4
	PORTB=0xFF;
 526:	85 b9       	out	0x05, r24	; 5
	//DDRD=0;
	//PORTD=0xFF;
	
	//инициализируем кнопки
	DDRD&=~((1<<TACT1_PIN)|(1<<TACT2_PIN));//пин 2,3 на вход
 528:	8a b1       	in	r24, 0x0a	; 10
 52a:	83 7f       	andi	r24, 0xF3	; 243
 52c:	8a b9       	out	0x0a, r24	; 10
	PORTD|=((1<<TACT1_PIN)|(1<<TACT2_PIN));//подтяжку на пины
 52e:	8b b1       	in	r24, 0x0b	; 11
 530:	8c 60       	ori	r24, 0x0C	; 12
 532:	8b b9       	out	0x0b, r24	; 11
	//настраиваем прерывания INT0, INT1
	EICRA=(0<<ISC11)|(1<<ISC10)|(0<<ISC01)|(1<<ISC00);//по спадающему фронту
 534:	85 e0       	ldi	r24, 0x05	; 5
 536:	80 93 69 00 	sts	0x0069, r24
	EIMSK=(1<<INT1)|(1<<INT0);
 53a:	83 e0       	ldi	r24, 0x03	; 3
 53c:	8d bb       	out	0x1d, r24	; 29
	
	//инициализируем порт и пин буззера
	PORTD&=~(1<<BUZZ_PIN);
 53e:	58 98       	cbi	0x0b, 0	; 11
	DDRD|=1<<BUZZ_PIN;
 540:	50 9a       	sbi	0x0a, 0	; 10
	
	//тестовый пик
	//buzz(7);
	
	//инициализируем экран
	LCDinit();
 542:	01 de       	rcall	.-1022   	; 0x146 <LCDinit>
	LCDclr();
 544:	58 de       	rcall	.-848    	; 0x1f6 <LCDclr>
 546:	fe 01       	movw	r30, r28
 548:	31 96       	adiw	r30, 0x01	; 1
 54a:	9e 01       	movw	r18, r28
 54c:	2f 5e       	subi	r18, 0xEF	; 239
 54e:	3f 4f       	sbci	r19, 0xFF	; 255
 550:	6f 01       	movw	r12, r30
	
	//выводим квадраты для теста дисплея
	for(i=0;i<16;i++) txt[i]=0xFF;
 552:	8f ef       	ldi	r24, 0xFF	; 255
 554:	81 93       	st	Z+, r24
 556:	e2 17       	cp	r30, r18
 558:	f3 07       	cpc	r31, r19
 55a:	e1 f7       	brne	.-8      	; 0x554 <main+0x4c>
 55c:	80 e8       	ldi	r24, 0x80	; 128
 55e:	cd dd       	rcall	.-1126   	; 0xfa <LCDsendCommand>
	LCDGotoXY(0,0);
	LCDstring((uint8_t*)txt,16);
 560:	60 e1       	ldi	r22, 0x10	; 16
 562:	c6 01       	movw	r24, r12
 564:	57 de       	rcall	.-850    	; 0x214 <LCDstring>
 566:	80 ec       	ldi	r24, 0xC0	; 192
 568:	c8 dd       	rcall	.-1136   	; 0xfa <LCDsendCommand>
	LCDGotoXY(0,1);
	LCDstring((uint8_t*)txt,16);
 56a:	60 e1       	ldi	r22, 0x10	; 16
 56c:	c6 01       	movw	r24, r12
 56e:	52 de       	rcall	.-860    	; 0x214 <LCDstring>
 570:	2f ef       	ldi	r18, 0xFF	; 255
 572:	84 e3       	ldi	r24, 0x34	; 52
 574:	9c e0       	ldi	r25, 0x0C	; 12
 576:	21 50       	subi	r18, 0x01	; 1
 578:	80 40       	sbci	r24, 0x00	; 0
 57a:	90 40       	sbci	r25, 0x00	; 0
 57c:	e1 f7       	brne	.-8      	; 0x576 <main+0x6e>
 57e:	00 c0       	rjmp	.+0      	; 0x580 <main+0x78>
 580:	00 00       	nop
	_delay_ms(500);
	LCDclr();
 582:	39 de       	rcall	.-910    	; 0x1f6 <LCDclr>
	
	//инициализация порта MOSFET
	//устанавливаем в 0
	MOSFET_PORT&=~(1<<MOSFET_GATE);
 584:	5f 98       	cbi	0x0b, 7	; 11
	//выход
	MOSFET_DDR|=(1<<MOSFET_GATE);
 586:	57 9a       	sbi	0x0a, 7	; 10
	
	//обнуляем время
	ExpTime.hour=0;
 588:	10 92 0a 01 	sts	0x010A, r1
	ExpTime.minute=0;
 58c:	10 92 09 01 	sts	0x0109, r1
	ExpTime.second=0;
 590:	10 92 08 01 	sts	0x0108, r1
	//отображаем его
	flagWork|=(1<<LCD_UPD)|(1<<CUR_TIME);
 594:	80 91 03 01 	lds	r24, 0x0103
 598:	80 63       	ori	r24, 0x30	; 48
 59a:	80 93 03 01 	sts	0x0103, r24
	

	sei();
 59e:	78 94       	sei
				if ((flagWork&(1<<CUR_TIME)) && (flagWork&((1<<BLINK_H)|(1<<BLINK_M)|(1<<BLINK_S))))
				{
					//отображаем мигающий курсор под изменяемой позицией
						
					pos=3*((flagWork&(1<<BLINK_H))>>BLINK_H)+3*((flagWork&(1<<BLINK_M))>>BLINK_M);
					LCDGotoXY(4+(8-pos),0);
 5a0:	5c e0       	ldi	r21, 0x0C	; 12
 5a2:	c5 2e       	mov	r12, r21
				}
				encPushDown=0;
			}
			else
			{
				encPushDown=1;
 5a4:	dd 24       	eor	r13, r13
 5a6:	d3 94       	inc	r13
						}
						else
						{
							encCount=1;
							//очищаем флаг экрана + обновляем экран
							flagWork=(1<<LCD_UPD)|(1<<CUR_TIME);
 5a8:	60 e3       	ldi	r22, 0x30	; 48
 5aa:	b6 2e       	mov	r11, r22
	
	
    while(1)
    {
		//если не идет обратный отсчет то работаем с энкодером
		if (!(flagWork&(1<<WORK_TIME)))
 5ac:	80 91 03 01 	lds	r24, 0x0103
 5b0:	87 fd       	sbrc	r24, 7
 5b2:	5f c0       	rjmp	.+190    	; 0x672 <main+0x16a>
		{
			//определяем положение энкодера
			EncStep += encPollDelta(encCurState);
 5b4:	a0 90 02 01 	lds	r10, 0x0102
 5b8:	80 91 07 01 	lds	r24, 0x0107
 5bc:	90 e0       	ldi	r25, 0x00	; 0
 5be:	ff de       	rcall	.-514    	; 0x3be <encPollDelta>
 5c0:	8a 0d       	add	r24, r10
 5c2:	80 93 02 01 	sts	0x0102, r24
	
			//Крутим по часовой
			if (EncStep>1) 
 5c6:	82 30       	cpi	r24, 0x02	; 2
 5c8:	44 f1       	brlt	.+80     	; 0x61a <main+0x112>
			{
				EncStep=0;
 5ca:	10 92 02 01 	sts	0x0102, r1
		
				//если в режиме изменения времени, то меняем время
				//при первоначальном отображении после инициализации не реагирует
				//т.к. encCount=1
				if (flagWork&(1<<CUR_TIME))
 5ce:	80 91 03 01 	lds	r24, 0x0103
 5d2:	84 ff       	sbrs	r24, 4
 5d4:	1b c0       	rjmp	.+54     	; 0x60c <main+0x104>
				{
					switch (encCount&0x0E)
 5d6:	80 91 00 01 	lds	r24, 0x0100
 5da:	8e 70       	andi	r24, 0x0E	; 14
 5dc:	84 30       	cpi	r24, 0x04	; 4
 5de:	51 f0       	breq	.+20     	; 0x5f4 <main+0xec>
 5e0:	88 30       	cpi	r24, 0x08	; 8
 5e2:	71 f0       	breq	.+28     	; 0x600 <main+0xf8>
 5e4:	82 30       	cpi	r24, 0x02	; 2
 5e6:	89 f4       	brne	.+34     	; 0x60a <main+0x102>
					{
						case 2: ExpTime.second--;break;
 5e8:	80 91 08 01 	lds	r24, 0x0108
 5ec:	81 50       	subi	r24, 0x01	; 1
 5ee:	80 93 08 01 	sts	0x0108, r24
 5f2:	0b c0       	rjmp	.+22     	; 0x60a <main+0x102>
						case 4: ExpTime.minute--;break;
 5f4:	80 91 09 01 	lds	r24, 0x0109
 5f8:	81 50       	subi	r24, 0x01	; 1
 5fa:	80 93 09 01 	sts	0x0109, r24
 5fe:	05 c0       	rjmp	.+10     	; 0x60a <main+0x102>
						case 8: ExpTime.hour--;
 600:	80 91 0a 01 	lds	r24, 0x010A
 604:	81 50       	subi	r24, 0x01	; 1
 606:	80 93 0a 01 	sts	0x010A, r24
		
					}

					checkTime();
 60a:	51 df       	rcall	.-350    	; 0x4ae <checkTime>
				}
				//если в режиме выбора пресета - меняем пресеты
				if (flagWork&(1<<PRESET))
 60c:	80 91 03 01 	lds	r24, 0x0103
 610:	86 ff       	sbrs	r24, 6
 612:	03 c0       	rjmp	.+6      	; 0x61a <main+0x112>
				{
					//код
				
					//обновляем экран
					flagWork|=(1<<LCD_UPD);
 614:	80 62       	ori	r24, 0x20	; 32
 616:	80 93 03 01 	sts	0x0103, r24
				}
			}


			//Крутим против часовой
			if (EncStep<-1) 
 61a:	80 91 02 01 	lds	r24, 0x0102
 61e:	8f 3f       	cpi	r24, 0xFF	; 255
 620:	44 f5       	brge	.+80     	; 0x672 <main+0x16a>
			{
				EncStep=0;
 622:	10 92 02 01 	sts	0x0102, r1

				//если в режиме изменения времени, то меняем время
				if (flagWork&(1<<CUR_TIME))
 626:	80 91 03 01 	lds	r24, 0x0103
 62a:	84 ff       	sbrs	r24, 4
 62c:	1b c0       	rjmp	.+54     	; 0x664 <main+0x15c>
				{
					switch (encCount&0x0E)
 62e:	80 91 00 01 	lds	r24, 0x0100
 632:	8e 70       	andi	r24, 0x0E	; 14
 634:	84 30       	cpi	r24, 0x04	; 4
 636:	51 f0       	breq	.+20     	; 0x64c <main+0x144>
 638:	88 30       	cpi	r24, 0x08	; 8
 63a:	71 f0       	breq	.+28     	; 0x658 <main+0x150>
 63c:	82 30       	cpi	r24, 0x02	; 2
 63e:	89 f4       	brne	.+34     	; 0x662 <main+0x15a>
					{
						case 2: ExpTime.second++;break;
 640:	80 91 08 01 	lds	r24, 0x0108
 644:	8f 5f       	subi	r24, 0xFF	; 255
 646:	80 93 08 01 	sts	0x0108, r24
 64a:	0b c0       	rjmp	.+22     	; 0x662 <main+0x15a>
						case 4: ExpTime.minute++;break;
 64c:	80 91 09 01 	lds	r24, 0x0109
 650:	8f 5f       	subi	r24, 0xFF	; 255
 652:	80 93 09 01 	sts	0x0109, r24
 656:	05 c0       	rjmp	.+10     	; 0x662 <main+0x15a>
						case 8: ExpTime.hour++;
 658:	80 91 0a 01 	lds	r24, 0x010A
 65c:	8f 5f       	subi	r24, 0xFF	; 255
 65e:	80 93 0a 01 	sts	0x010A, r24
		
					}
					checkTime();
 662:	25 df       	rcall	.-438    	; 0x4ae <checkTime>
				}
				//если в режиме выбора пресета - меняем пресеты
				if (flagWork&(1<<PRESET))
 664:	80 91 03 01 	lds	r24, 0x0103
 668:	86 ff       	sbrs	r24, 6
 66a:	03 c0       	rjmp	.+6      	; 0x672 <main+0x16a>
				{
					//код
					
					//обновляем экран
					flagWork|=(1<<LCD_UPD);
 66c:	80 62       	ori	r24, 0x20	; 32
 66e:	80 93 03 01 	sts	0x0103, r24
			}
		}
			
					
		//определяем нажат ли энкодер (притянут к 0)
		if (!GET_PORT_DATA(ENCPOLL_BUTT_PORT,ENCPOLL_BUTT_PIN)) 
 672:	4e 99       	sbic	0x09, 6	; 9
 674:	2d c0       	rjmp	.+90     	; 0x6d0 <main+0x1c8>
 676:	8f e3       	ldi	r24, 0x3F	; 63
 678:	9c e9       	ldi	r25, 0x9C	; 156
 67a:	01 97       	sbiw	r24, 0x01	; 1
 67c:	f1 f7       	brne	.-4      	; 0x67a <main+0x172>
 67e:	00 c0       	rjmp	.+0      	; 0x680 <main+0x178>
 680:	00 00       	nop
		{
			_delay_ms(20);
			if (!GET_PORT_DATA(ENCPOLL_BUTT_PORT,ENCPOLL_BUTT_PIN)) //точно нажат!
 682:	4e 99       	sbic	0x09, 6	; 9
 684:	23 c0       	rjmp	.+70     	; 0x6cc <main+0x1c4>
			{
				
				if (encPushDown) //если нажат впервые
 686:	80 91 01 01 	lds	r24, 0x0101
 68a:	88 23       	and	r24, r24
 68c:	e1 f0       	breq	.+56     	; 0x6c6 <main+0x1be>
				{
					
					if (!(flagWork&(1<<WORK_TIME)))//если не идет обратный отсчет
 68e:	90 91 03 01 	lds	r25, 0x0103
 692:	97 fd       	sbrc	r25, 7
 694:	18 c0       	rjmp	.+48     	; 0x6c6 <main+0x1be>
					{
						//снимем флаг предустановки, если он был
						
						flagWork&=~(1<<PRESET);
 696:	9f 7b       	andi	r25, 0xBF	; 191
 698:	90 93 03 01 	sts	0x0103, r25
						
						encCount=((encCount<<1)&0x0F);
 69c:	80 91 00 01 	lds	r24, 0x0100
 6a0:	88 0f       	add	r24, r24
 6a2:	8e 70       	andi	r24, 0x0E	; 14
 6a4:	80 93 00 01 	sts	0x0100, r24
						//если не обнулился т.е. в пределах 2-F.Меньше 2 быть не может т.к. начальное 1 и 
						//в предыдущей строке еще сдвиг влево
						if (encCount)
 6a8:	80 91 00 01 	lds	r24, 0x0100
 6ac:	88 23       	and	r24, r24
 6ae:	39 f0       	breq	.+14     	; 0x6be <main+0x1b6>
						{
							//
							flagWork|=((1<<LCD_UPD)|(1<<CUR_TIME)|(encCount));
 6b0:	80 91 00 01 	lds	r24, 0x0100
 6b4:	80 63       	ori	r24, 0x30	; 48
 6b6:	89 2b       	or	r24, r25
 6b8:	80 93 03 01 	sts	0x0103, r24
 6bc:	04 c0       	rjmp	.+8      	; 0x6c6 <main+0x1be>
						}
						else
						{
							encCount=1;
 6be:	d0 92 00 01 	sts	0x0100, r13
							//очищаем флаг экрана + обновляем экран
							flagWork=(1<<LCD_UPD)|(1<<CUR_TIME);
 6c2:	b0 92 03 01 	sts	0x0103, r11
						}
					}
					
					
				}
				encPushDown=0;
 6c6:	10 92 01 01 	sts	0x0101, r1
 6ca:	02 c0       	rjmp	.+4      	; 0x6d0 <main+0x1c8>
			}
			else
			{
				encPushDown=1;
 6cc:	d0 92 01 01 	sts	0x0101, r13

		}


		//нажата кнопка 1 - выбора пресета - флаг в прерывании INT0
		if (flagTact1)
 6d0:	80 91 06 01 	lds	r24, 0x0106
 6d4:	88 23       	and	r24, r24
 6d6:	99 f0       	breq	.+38     	; 0x6fe <main+0x1f6>
		{
			//кнопка была нажата, отпустили
			flagTact1=0;
 6d8:	10 92 06 01 	sts	0x0106, r1
			LCDclr();
 6dc:	8c dd       	rcall	.-1256   	; 0x1f6 <LCDclr>
 6de:	80 e8       	ldi	r24, 0x80	; 128
 6e0:	0c dd       	rcall	.-1512   	; 0xfa <LCDsendCommand>
			LCDGotoXY(0,0);
			LCDsendChar(0x2B);//"+"
 6e2:	8b e2       	ldi	r24, 0x2B	; 43
 6e4:	e0 dc       	rcall	.-1600   	; 0xa6 <LCDsendChar>
 6e6:	9f ef       	ldi	r25, 0xFF	; 255
 6e8:	20 e7       	ldi	r18, 0x70	; 112
 6ea:	82 e0       	ldi	r24, 0x02	; 2
 6ec:	91 50       	subi	r25, 0x01	; 1
 6ee:	20 40       	sbci	r18, 0x00	; 0
 6f0:	80 40       	sbci	r24, 0x00	; 0
 6f2:	e1 f7       	brne	.-8      	; 0x6ec <main+0x1e4>
 6f4:	00 c0       	rjmp	.+0      	; 0x6f6 <main+0x1ee>
 6f6:	00 00       	nop
			_delay_ms(100);
			LCDclr();
 6f8:	7e dd       	rcall	.-1284   	; 0x1f6 <LCDclr>
			encCount=1;
 6fa:	d0 92 00 01 	sts	0x0100, r13
		}

		//нажата кнопка 2 - старта засветки - флаг в прерывании INT1
		if (flagTact2)
 6fe:	80 91 05 01 	lds	r24, 0x0105
 702:	88 23       	and	r24, r24
 704:	a9 f0       	breq	.+42     	; 0x730 <main+0x228>
		{
			//кнопка была нажата, отпустили
			flagTact2=0;
 706:	10 92 05 01 	sts	0x0105, r1
			encCount=1;
 70a:	d0 92 00 01 	sts	0x0100, r13
			
			//если время не 0 (чтоб не моргало)
			if (ExpTime.hour|ExpTime.minute|ExpTime.second)
 70e:	80 91 09 01 	lds	r24, 0x0109
 712:	90 91 0a 01 	lds	r25, 0x010A
 716:	89 2b       	or	r24, r25
 718:	90 91 08 01 	lds	r25, 0x0108
 71c:	89 2b       	or	r24, r25
 71e:	41 f0       	breq	.+16     	; 0x730 <main+0x228>
			{
				flagWork|=(1<<WORK_TIME);
				//что бы затереть ненужные флаги(LCD_CUR_TIME и хвост..), 
				//но оставить отображение предустановки
				flagWork&=(1<<PRESET)|(1<<WORK_TIME);
 720:	80 91 03 01 	lds	r24, 0x0103
 724:	80 7c       	andi	r24, 0xC0	; 192
 726:	80 68       	ori	r24, 0x80	; 128
 728:	80 93 03 01 	sts	0x0103, r24
				initTimer2();
 72c:	02 de       	rcall	.-1020   	; 0x332 <initTimer2>
				//запускаем MOSFET
				MOSFET_PORT|=(1<<MOSFET_GATE);
 72e:	5f 9a       	sbi	0x0b, 7	; 11
			}
			
		}
		
		//если время кончилось
		if (flagTimeStop)
 730:	80 91 04 01 	lds	r24, 0x0104
 734:	88 23       	and	r24, r24
 736:	89 f0       	breq	.+34     	; 0x75a <main+0x252>
		{
			cli();
 738:	f8 94       	cli
			flagTimeStop=0;
 73a:	10 92 04 01 	sts	0x0104, r1
			
			//обнуляем флаг экрана
			flagWork=0;
 73e:	10 92 03 01 	sts	0x0103, r1
			//LCDclr();
			ExpTime.hour=0;
 742:	10 92 0a 01 	sts	0x010A, r1
			ExpTime.minute=0;
 746:	10 92 09 01 	sts	0x0109, r1
			ExpTime.second=0;
 74a:	10 92 08 01 	sts	0x0108, r1
			//вырубаем MOSFET
			MOSFET_PORT&=~(1<<MOSFET_GATE);
 74e:	5f 98       	cbi	0x0b, 7	; 11
			
			//пищим
			buzz(40);
 750:	88 e2       	ldi	r24, 0x28	; 40
 752:	90 e0       	ldi	r25, 0x00	; 0
 754:	20 de       	rcall	.-960    	; 0x396 <buzz>
			
			
			//выключаем прерывание
			disableTimer2();
 756:	0d de       	rcall	.-998    	; 0x372 <disableTimer2>
			sei();			
 758:	78 94       	sei
		}
		
		//если выставлен флаг обновления экрана
		if (flagWork&(1<<LCD_UPD))
 75a:	80 91 03 01 	lds	r24, 0x0103
 75e:	85 ff       	sbrs	r24, 5
 760:	25 cf       	rjmp	.-438    	; 0x5ac <main+0xa4>
		{
			//снимаем его
			flagWork&=~(1<<LCD_UPD);
 762:	98 2f       	mov	r25, r24
 764:	9f 7d       	andi	r25, 0xDF	; 223
 766:	90 93 03 01 	sts	0x0103, r25
			
			if (flagWork&(1<<CUR_TIME))
 76a:	84 ff       	sbrs	r24, 4
 76c:	1b c0       	rjmp	.+54     	; 0x7a4 <main+0x29c>
			{
				//отображаем текущее установленное время 
				showTime();
 76e:	53 de       	rcall	.-858    	; 0x416 <showTime>
				//если установка времени - включаем курсор под текущим разрядом
				if ((flagWork&(1<<CUR_TIME)) && (flagWork&((1<<BLINK_H)|(1<<BLINK_M)|(1<<BLINK_S))))
 770:	80 91 03 01 	lds	r24, 0x0103
 774:	84 ff       	sbrs	r24, 4
 776:	16 c0       	rjmp	.+44     	; 0x7a4 <main+0x29c>
 778:	98 2f       	mov	r25, r24
 77a:	9e 70       	andi	r25, 0x0E	; 14
 77c:	99 f0       	breq	.+38     	; 0x7a4 <main+0x29c>
				{
					//отображаем мигающий курсор под изменяемой позицией
						
					pos=3*((flagWork&(1<<BLINK_H))>>BLINK_H)+3*((flagWork&(1<<BLINK_M))>>BLINK_M);
 77e:	83 fb       	bst	r24, 3
 780:	00 27       	eor	r16, r16
 782:	00 f9       	bld	r16, 0
 784:	10 e0       	ldi	r17, 0x00	; 0
 786:	82 fb       	bst	r24, 2
 788:	ee 24       	eor	r14, r14
 78a:	e0 f8       	bld	r14, 0
 78c:	f1 2c       	mov	r15, r1
 78e:	0e 0d       	add	r16, r14
 790:	1f 1d       	adc	r17, r15
 792:	80 2f       	mov	r24, r16
 794:	88 0f       	add	r24, r24
 796:	80 0f       	add	r24, r16
					LCDGotoXY(4+(8-pos),0);
 798:	9c 2d       	mov	r25, r12
 79a:	98 1b       	sub	r25, r24
 79c:	89 2f       	mov	r24, r25
 79e:	80 68       	ori	r24, 0x80	; 128
 7a0:	ac dc       	rcall	.-1704   	; 0xfa <LCDsendCommand>
					LCDcursorOnBlink();
 7a2:	59 dd       	rcall	.-1358   	; 0x256 <LCDcursorOnBlink>
						
				}

			}
			
			if (flagWork&(1<<WORK_TIME))
 7a4:	80 91 03 01 	lds	r24, 0x0103
 7a8:	87 ff       	sbrs	r24, 7
 7aa:	00 cf       	rjmp	.-512    	; 0x5ac <main+0xa4>
			{
				//отображаем текущее время
				showTime();
 7ac:	34 de       	rcall	.-920    	; 0x416 <showTime>
 7ae:	fe ce       	rjmp	.-516    	; 0x5ac <main+0xa4>

000007b0 <__itoa_ncheck>:
 7b0:	bb 27       	eor	r27, r27
 7b2:	4a 30       	cpi	r20, 0x0A	; 10
 7b4:	31 f4       	brne	.+12     	; 0x7c2 <__itoa_ncheck+0x12>
 7b6:	99 23       	and	r25, r25
 7b8:	22 f4       	brpl	.+8      	; 0x7c2 <__itoa_ncheck+0x12>
 7ba:	bd e2       	ldi	r27, 0x2D	; 45
 7bc:	90 95       	com	r25
 7be:	81 95       	neg	r24
 7c0:	9f 4f       	sbci	r25, 0xFF	; 255
 7c2:	01 c0       	rjmp	.+2      	; 0x7c6 <__utoa_common>

000007c4 <__utoa_ncheck>:
 7c4:	bb 27       	eor	r27, r27

000007c6 <__utoa_common>:
 7c6:	fb 01       	movw	r30, r22
 7c8:	55 27       	eor	r21, r21
 7ca:	aa 27       	eor	r26, r26
 7cc:	88 0f       	add	r24, r24
 7ce:	99 1f       	adc	r25, r25
 7d0:	aa 1f       	adc	r26, r26
 7d2:	a4 17       	cp	r26, r20
 7d4:	10 f0       	brcs	.+4      	; 0x7da <__utoa_common+0x14>
 7d6:	a4 1b       	sub	r26, r20
 7d8:	83 95       	inc	r24
 7da:	50 51       	subi	r21, 0x10	; 16
 7dc:	b9 f7       	brne	.-18     	; 0x7cc <__utoa_common+0x6>
 7de:	a0 5d       	subi	r26, 0xD0	; 208
 7e0:	aa 33       	cpi	r26, 0x3A	; 58
 7e2:	08 f0       	brcs	.+2      	; 0x7e6 <__utoa_common+0x20>
 7e4:	a9 5d       	subi	r26, 0xD9	; 217
 7e6:	a1 93       	st	Z+, r26
 7e8:	00 97       	sbiw	r24, 0x00	; 0
 7ea:	79 f7       	brne	.-34     	; 0x7ca <__utoa_common+0x4>
 7ec:	b1 11       	cpse	r27, r1
 7ee:	b1 93       	st	Z+, r27
 7f0:	11 92       	st	Z+, r1
 7f2:	cb 01       	movw	r24, r22
 7f4:	00 c0       	rjmp	.+0      	; 0x7f6 <strrev>

000007f6 <strrev>:
 7f6:	dc 01       	movw	r26, r24
 7f8:	fc 01       	movw	r30, r24
 7fa:	67 2f       	mov	r22, r23
 7fc:	71 91       	ld	r23, Z+
 7fe:	77 23       	and	r23, r23
 800:	e1 f7       	brne	.-8      	; 0x7fa <strrev+0x4>
 802:	32 97       	sbiw	r30, 0x02	; 2
 804:	04 c0       	rjmp	.+8      	; 0x80e <strrev+0x18>
 806:	7c 91       	ld	r23, X
 808:	6d 93       	st	X+, r22
 80a:	70 83       	st	Z, r23
 80c:	62 91       	ld	r22, -Z
 80e:	ae 17       	cp	r26, r30
 810:	bf 07       	cpc	r27, r31
 812:	c8 f3       	brcs	.-14     	; 0x806 <strrev+0x10>
 814:	08 95       	ret

00000816 <_exit>:
 816:	f8 94       	cli

00000818 <__stop_program>:
 818:	ff cf       	rjmp	.-2      	; 0x818 <__stop_program>
